Certificate:
    Data:
        Version: 1 (0x0)
        Serial Number: 1 (0x1)
        Signature Algorithm: sha1WithRSAEncryption
        Issuer: C=ES, ST=MADRID, O=UC3M, OU=INF, CN=AC1/emailAddress=AC1@COSEC.INF.UC3M.ES
        Validity
            Not Before: Dec  1 19:56:32 2021 GMT
            Not After : Dec  1 19:56:32 2022 GMT
        Subject: C=US, ST=texas, O=pepetaco, OU=pepetacolog, CN=pepepepe/emailAddress=pepe@pepe.com
        Subject Public Key Info:
            Public Key Algorithm: rsaEncryption
                RSA Public-Key: (2048 bit)
                Modulus:
                    00:bf:aa:19:2d:30:23:9c:9d:1c:a6:53:27:5c:5c:
                    fc:40:77:67:e9:70:e9:37:48:ae:c7:77:fd:b6:25:
                    4e:06:f4:be:96:9a:11:d2:62:62:25:05:45:fa:76:
                    a1:6f:17:8b:b9:23:9a:4f:dd:ed:b1:cf:42:f3:4c:
                    03:ab:43:84:1c:eb:0f:fd:1e:5b:11:f5:ba:07:50:
                    18:cf:94:f1:c6:05:36:ae:cb:12:a5:77:f8:cc:95:
                    0e:5c:80:2f:90:81:f0:bc:a1:68:0c:68:95:67:c8:
                    6e:b3:15:c6:1e:ec:f0:a1:d4:09:52:5e:bb:8c:8a:
                    a2:54:e6:19:6c:5b:fd:f1:ca:7c:6e:ed:0b:86:45:
                    93:4b:5b:48:07:46:5e:e0:95:83:08:5a:80:7f:d0:
                    31:f2:b6:6c:87:1f:78:1f:2d:93:5a:8f:d0:04:5f:
                    6d:3f:09:92:78:fe:19:2e:f0:65:30:e1:cc:46:d6:
                    c9:40:13:6d:e2:c1:8b:ac:39:b8:f9:a2:50:d6:57:
                    d9:eb:0d:f5:c6:9c:4c:ca:09:83:37:d0:0d:0f:02:
                    0e:0c:a4:a7:eb:36:ae:57:cb:5b:8b:60:f2:74:d8:
                    86:c4:24:f5:52:06:38:0b:61:c8:8e:eb:06:cf:fd:
                    43:0d:6e:cc:ac:5c:c1:05:4e:5e:3f:8a:07:87:0c:
                    f4:4b
                Exponent: 65537 (0x10001)
    Signature Algorithm: sha1WithRSAEncryption
         1a:fd:57:ba:1a:07:b0:3a:4f:84:03:bf:86:fa:76:91:36:41:
         9a:22:6d:97:ef:5a:10:34:e0:3b:1c:18:f9:2b:e6:26:1b:e6:
         2f:6e:6d:39:bf:85:6d:49:54:a6:99:f5:34:87:2a:03:b2:4d:
         71:90:ef:7d:1b:60:86:0c:4a:1e:3e:b0:74:92:33:10:57:43:
         1a:f3:67:9f:5d:98:6b:56:db:cf:ca:20:70:ec:69:11:cc:5c:
         a1:5c:6f:6f:e6:8a:74:25:3d:c9:0d:34:76:58:30:bc:fd:a5:
         f2:bf:83:d4:cb:b2:50:4b:80:ff:27:bb:6a:3a:71:4c:47:e6:
         52:f0:58:08:3b:82:da:a3:f9:5f:5f:f0:74:d6:94:24:b2:21:
         ca:23:92:86:44:1f:2c:50:b4:b1:3c:1b:e2:08:8d:f5:0e:08:
         9c:98:f0:0a:53:1a:41:70:2d:57:69:ab:c5:93:0f:5b:9c:11:
         a4:a7:f6:94:1c:fe:3e:16:02:df:f7:43:43:23:24:af:0a:07:
         eb:99:c2:20:18:a2:0d:5e:70:f2:75:2a:7a:5d:e9:cc:09:a0:
         05:08:7a:f8:9f:82:6c:a5:67:98:e4:80:d5:3a:d6:1d:7f:e6:
         35:65:21:42:c7:71:14:6a:02:8d:91:f6:be:94:59:c4:d8:c0:
         5b:00:d2:08
-----BEGIN CERTIFICATE-----
MIIDWjCCAkICAQEwDQYJKoZIhvcNAQEFBQAwbzELMAkGA1UEBhMCRVMxDzANBgNV
BAgTBk1BRFJJRDENMAsGA1UEChMEVUMzTTEMMAoGA1UECxMDSU5GMQwwCgYDVQQD
EwNBQzExJDAiBgkqhkiG9w0BCQEWFUFDMUBDT1NFQy5JTkYuVUMzTS5FUzAeFw0y
MTEyMDExOTU2MzJaFw0yMjEyMDExOTU2MzJaMHcxCzAJBgNVBAYTAlVTMQ4wDAYD
VQQIDAV0ZXhhczERMA8GA1UECgwIcGVwZXRhY28xFDASBgNVBAsMC3BlcGV0YWNv
bG9nMREwDwYDVQQDDAhwZXBlcGVwZTEcMBoGCSqGSIb3DQEJARYNcGVwZUBwZXBl
LmNvbTCCASIwDQYJKoZIhvcNAQEBBQADggEPADCCAQoCggEBAL+qGS0wI5ydHKZT
J1xc/EB3Z+lw6TdIrsd3/bYlTgb0vpaaEdJiYiUFRfp2oW8Xi7kjmk/d7bHPQvNM
A6tDhBzrD/0eWxH1ugdQGM+U8cYFNq7LEqV3+MyVDlyAL5CB8LyhaAxolWfIbrMV
xh7s8KHUCVJeu4yKolTmGWxb/fHKfG7tC4ZFk0tbSAdGXuCVgwhagH/QMfK2bIcf
eB8tk1qP0ARfbT8Jknj+GS7wZTDhzEbWyUATbeLBi6w5uPmiUNZX2esN9cacTMoJ
gzfQDQ8CDgykp+s2rlfLW4tg8nTYhsQk9VIGOAthyI7rBs/9Qw1uzKxcwQVOXj+K
B4cM9EsCAwEAATANBgkqhkiG9w0BAQUFAAOCAQEAGv1XuhoHsDpPhAO/hvp2kTZB
miJtl+9aEDTgOxwY+SvmJhvmL25tOb+FbUlUppn1NIcqA7JNcZDvfRtghgxKHj6w
dJIzEFdDGvNnn12Ya1bbz8ogcOxpEcxcoVxvb+aKdCU9yQ00dlgwvP2l8r+D1Muy
UEuA/ye7ajpxTEfmUvBYCDuC2qP5X1/wdNaUJLIhyiOShkQfLFC0sTwb4giN9Q4I
nJjwClMaQXAtV2mrxZMPW5wRpKf2lBz+PhYC3/dDQyMkrwoH65nCIBiiDV5w8nUq
el3pzAmgBQh6+J+CbKVnmOSA1TrWHX/mNWUhQsdxFGoCjZH2vpRZxNjAWwDSCA==
-----END CERTIFICATE-----
